target datalayout = "e-m:e-p270:32:32-p271:32:32-p272:64:64-i64:64-i128:128-f80:128-n8:16:32:64-S128"
target triple = "x86_64-pc-linux-gnu"

%"class.llvm::SmallVectorBase" = type { ptr, i32, i32 }
%"class.llvm::SmallPtrSetImplBase.base" = type <{ ptr, ptr, i32, i32, i32 }>
%"class.std::_Function_base" = type { %"union.std::_Any_data", ptr }
%"union.std::_Any_data" = type { %"union.std::_Nocopy_types" }
%"union.std::_Nocopy_types" = type { { i64, i64 } }
%"class.llvm::Use" = type { ptr, ptr, ptr, ptr }
%"struct.llvm::ObjectSizeOpts" = type { i8, i8, i8, ptr }
%"class.llvm::ObjectSizeOffsetEvaluator" = type { ptr, ptr, ptr, %"class.llvm::IRBuilder", ptr, ptr, %"class.llvm::DenseMap", %"class.llvm::SmallPtrSet.80", %"struct.llvm::ObjectSizeOpts", %"class.llvm::SmallPtrSet.83" }
%"class.llvm::IRBuilder" = type { %"class.llvm::IRBuilderBase", %"class.llvm::TargetFolder", %"class.llvm::IRBuilderCallbackInserter" }
%"class.llvm::IRBuilderBase" = type { %"class.llvm::SmallVector.70", ptr, %"class.llvm::ilist_iterator_w_bits", ptr, ptr, ptr, ptr, %"class.llvm::FastMathFlags", i8, i8, i8, %"class.llvm::ArrayRef" }
%"class.llvm::SmallVector.70" = type { %"class.llvm::SmallVectorImpl.71", %"struct.llvm::SmallVectorStorage.74" }
%"class.llvm::SmallVectorImpl.71" = type { %"class.llvm::SmallVectorTemplateBase.72" }
%"class.llvm::SmallVectorTemplateBase.72" = type { %"class.llvm::SmallVectorTemplateCommon.73" }
%"class.llvm::SmallVectorTemplateCommon.73" = type { %"class.llvm::SmallVectorBase" }
%"struct.llvm::SmallVectorStorage.74" = type { [32 x i8] }
%"class.llvm::ilist_iterator_w_bits" = type <{ ptr, i8, i8, [6 x i8] }>
%"class.llvm::FastMathFlags" = type { i32 }
%"class.llvm::ArrayRef" = type { ptr, i64 }
%"class.llvm::TargetFolder" = type { %"class.llvm::IRBuilderFolder", ptr }
%"class.llvm::IRBuilderFolder" = type { ptr }
%"class.llvm::IRBuilderCallbackInserter" = type { %"class.llvm::IRBuilderDefaultInserter", %"class.std::function.76" }
%"class.llvm::IRBuilderDefaultInserter" = type { ptr }
%"class.std::function.76" = type { %"class.std::_Function_base", ptr }
%"class.llvm::DenseMap" = type <{ ptr, i32, i32, i32, [4 x i8] }>
%"class.llvm::SmallPtrSet.80" = type { %"class.llvm::SmallPtrSetImpl.base.82", [8 x ptr] }
%"class.llvm::SmallPtrSetImpl.base.82" = type { %"class.llvm::SmallPtrSetImplBase.base" }
%"class.llvm::SmallPtrSet.83" = type { %"class.llvm::SmallPtrSetImpl.base.85", [8 x ptr] }
%"class.llvm::SmallPtrSetImpl.base.85" = type { %"class.llvm::SmallPtrSetImplBase.base" }
%"struct.llvm::SizeOffsetValue" = type { %"struct.llvm::SizeOffsetType.86" }
%"struct.llvm::SizeOffsetType.86" = type { ptr, ptr }
%"class.llvm::Twine" = type <{ %"union.llvm::Twine::Child", %"union.llvm::Twine::Child", i8, i8, [6 x i8] }>
%"union.llvm::Twine::Child" = type { %struct.anon }
%struct.anon = type { ptr, i64 }

@.str.12 = private unnamed_addr constant [1 x i8] zeroinitializer, align 1

; Function Attrs: mustprogress nounwind uwtable
define linkonce_odr hidden noundef ptr @_ZN4llvm21FixedNumOperandTraitsINS_10SelectInstELj3EE8op_beginEPS1_(ptr noundef %0) #1 comdat align 2 {
  %2 = alloca ptr, align 8
  store ptr %0, ptr %2, align 8
  %3 = load ptr, ptr %2, align 8
  %4 = getelementptr inbounds %"class.llvm::Use", ptr %3, i64 -3
  ret ptr %4
}

; Function Attrs: mustprogress nounwind uwtable
define linkonce_odr hidden noundef nonnull align 8 dereferenceable(32) ptr @_ZN4llvm4User6OpFromILi0ENS_10SelectInstEEERNS_3UseEPKT0_(ptr noundef %0) #1 comdat align 2 {
  %2 = alloca ptr, align 8
  store ptr %0, ptr %2, align 8
  %3 = load ptr, ptr %2, align 8
  %4 = call noundef ptr @_ZN4llvm21FixedNumOperandTraitsINS_10SelectInstELj3EE8op_beginEPS1_(ptr noundef %3)
  %5 = getelementptr inbounds %"class.llvm::Use", ptr %4, i64 0
  ret ptr %5
}

; Function Attrs: mustprogress nounwind uwtable
define linkonce_odr hidden noundef zeroext i1 @_ZN4llvm15SizeOffsetValue5knownEPNS_5ValueE(ptr noundef %0) #1 comdat align 2 {
  %2 = alloca ptr, align 8
  store ptr %0, ptr %2, align 8
  %3 = load ptr, ptr %2, align 8
  %4 = icmp ne ptr %3, null
  ret i1 %4
}

; Function Attrs: mustprogress nounwind uwtable
define linkonce_odr hidden noundef nonnull align 8 dereferenceable(32) ptr @_ZN4llvm4User6OpFromILi2ENS_10SelectInstEEERNS_3UseEPKT0_(ptr noundef %0) #1 comdat align 2 {
  %2 = alloca ptr, align 8
  store ptr %0, ptr %2, align 8
  %3 = load ptr, ptr %2, align 8
  %4 = call noundef ptr @_ZN4llvm21FixedNumOperandTraitsINS_10SelectInstELj3EE8op_beginEPS1_(ptr noundef %3)
  %5 = getelementptr inbounds %"class.llvm::Use", ptr %4, i64 2
  ret ptr %5
}

; Function Attrs: mustprogress nounwind uwtable
define linkonce_odr hidden noundef nonnull align 8 dereferenceable(32) ptr @_ZN4llvm4User6OpFromILi1ENS_10SelectInstEEERNS_3UseEPKT0_(ptr noundef %0) #1 comdat align 2 {
  %2 = alloca ptr, align 8
  store ptr %0, ptr %2, align 8
  %3 = load ptr, ptr %2, align 8
  %4 = call noundef ptr @_ZN4llvm21FixedNumOperandTraitsINS_10SelectInstELj3EE8op_beginEPS1_(ptr noundef %3)
  %5 = getelementptr inbounds %"class.llvm::Use", ptr %4, i64 1
  ret ptr %5
}

; Function Attrs: mustprogress nounwind uwtable
define linkonce_odr hidden void @_ZN4llvm14SizeOffsetTypeIPNS_5ValueENS_15SizeOffsetValueEEC2ES2_S2_(ptr noundef nonnull align 8 dereferenceable(16) %0, ptr noundef %1, ptr noundef %2) unnamed_addr #1 comdat align 2 {
  %4 = alloca ptr, align 8
  %5 = alloca ptr, align 8
  %6 = alloca ptr, align 8
  store ptr %0, ptr %4, align 8
  store ptr %1, ptr %5, align 8
  store ptr %2, ptr %6, align 8
  %7 = load ptr, ptr %4, align 8
  %8 = getelementptr inbounds nuw %"struct.llvm::SizeOffsetType.86", ptr %7, i32 0, i32 0
  %9 = load ptr, ptr %5, align 8
  store ptr %9, ptr %8, align 8
  %10 = getelementptr inbounds nuw %"struct.llvm::SizeOffsetType.86", ptr %7, i32 0, i32 1
  %11 = load ptr, ptr %6, align 8
  store ptr %11, ptr %10, align 8
  ret void
}

; Function Attrs: mustprogress nounwind uwtable
define linkonce_odr hidden noundef nonnull align 8 dereferenceable(32) ptr @_ZN4llvm10SelectInst2OpILi0EEERNS_3UseEv(ptr noundef nonnull align 8 dereferenceable(72) %0) #1 comdat align 2 {
  %2 = alloca ptr, align 8
  store ptr %0, ptr %2, align 8
  %3 = load ptr, ptr %2, align 8
  %4 = call noundef nonnull align 8 dereferenceable(32) ptr @_ZN4llvm4User6OpFromILi0ENS_10SelectInstEEERNS_3UseEPKT0_(ptr noundef %3)
  ret ptr %4
}

; Function Attrs: mustprogress nounwind uwtable
define linkonce_odr hidden void @_ZN4llvm15SizeOffsetValueC2Ev(ptr noundef nonnull align 8 dereferenceable(16) %0) unnamed_addr #1 comdat align 2 {
  %2 = alloca ptr, align 8
  store ptr %0, ptr %2, align 8
  %3 = load ptr, ptr %2, align 8
  call void @_ZN4llvm14SizeOffsetTypeIPNS_5ValueENS_15SizeOffsetValueEEC2ES2_S2_(ptr noundef nonnull align 8 dereferenceable(16) %3, ptr noundef null, ptr noundef null)
  ret void
}

; Function Attrs: mustprogress nounwind uwtable
define linkonce_odr hidden noundef zeroext i1 @_ZNK4llvm14SizeOffsetTypeIPNS_5ValueENS_15SizeOffsetValueEE11knownOffsetEv(ptr noundef nonnull align 8 dereferenceable(16) %0) #1 comdat align 2 {
  %2 = alloca ptr, align 8
  store ptr %0, ptr %2, align 8
  %3 = load ptr, ptr %2, align 8
  %4 = getelementptr inbounds nuw %"struct.llvm::SizeOffsetType.86", ptr %3, i32 0, i32 1
  %5 = load ptr, ptr %4, align 8
  %6 = call noundef zeroext i1 @_ZN4llvm15SizeOffsetValue5knownEPNS_5ValueE(ptr noundef %5)
  ret i1 %6
}

; Function Attrs: mustprogress nounwind uwtable
define linkonce_odr hidden noundef zeroext i1 @_ZNK4llvm14SizeOffsetTypeIPNS_5ValueENS_15SizeOffsetValueEE9knownSizeEv(ptr noundef nonnull align 8 dereferenceable(16) %0) #1 comdat align 2 {
  %2 = alloca ptr, align 8
  store ptr %0, ptr %2, align 8
  %3 = load ptr, ptr %2, align 8
  %4 = getelementptr inbounds nuw %"struct.llvm::SizeOffsetType.86", ptr %3, i32 0, i32 0
  %5 = load ptr, ptr %4, align 8
  %6 = call noundef zeroext i1 @_ZN4llvm15SizeOffsetValue5knownEPNS_5ValueE(ptr noundef %5)
  ret i1 %6
}

; Function Attrs: mustprogress nounwind uwtable
define linkonce_odr hidden noundef nonnull align 8 dereferenceable(32) ptr @_ZN4llvm10SelectInst2OpILi2EEERNS_3UseEv(ptr noundef nonnull align 8 dereferenceable(72) %0) #1 comdat align 2 {
  %2 = alloca ptr, align 8
  store ptr %0, ptr %2, align 8
  %3 = load ptr, ptr %2, align 8
  %4 = call noundef nonnull align 8 dereferenceable(32) ptr @_ZN4llvm4User6OpFromILi2ENS_10SelectInstEEERNS_3UseEPKT0_(ptr noundef %3)
  ret ptr %4
}

; Function Attrs: mustprogress nounwind uwtable
define linkonce_odr hidden noundef ptr @_ZNK4llvm3UsecvPNS_5ValueEEv(ptr noundef nonnull align 8 dereferenceable(32) %0) #1 comdat align 2 {
  %2 = alloca ptr, align 8
  store ptr %0, ptr %2, align 8
  %3 = load ptr, ptr %2, align 8
  %4 = getelementptr inbounds nuw %"class.llvm::Use", ptr %3, i32 0, i32 0
  %5 = load ptr, ptr %4, align 8
  ret ptr %5
}

; Function Attrs: mustprogress nounwind uwtable
define linkonce_odr hidden noundef nonnull align 8 dereferenceable(32) ptr @_ZN4llvm10SelectInst2OpILi1EEERNS_3UseEv(ptr noundef nonnull align 8 dereferenceable(72) %0) #1 comdat align 2 {
  %2 = alloca ptr, align 8
  store ptr %0, ptr %2, align 8
  %3 = load ptr, ptr %2, align 8
  %4 = call noundef nonnull align 8 dereferenceable(32) ptr @_ZN4llvm4User6OpFromILi1ENS_10SelectInstEEERNS_3UseEPKT0_(ptr noundef %3)
  ret ptr %4
}

; Function Attrs: mustprogress nounwind uwtable
define linkonce_odr hidden void @_ZN4llvm15SizeOffsetValueC2EPNS_5ValueES2_(ptr noundef nonnull align 8 dereferenceable(16) %0, ptr noundef %1, ptr noundef %2) unnamed_addr #1 comdat align 2 {
  %4 = alloca ptr, align 8
  %5 = alloca ptr, align 8
  %6 = alloca ptr, align 8
  store ptr %0, ptr %4, align 8
  store ptr %1, ptr %5, align 8
  store ptr %2, ptr %6, align 8
  %7 = load ptr, ptr %4, align 8
  %8 = load ptr, ptr %5, align 8
  %9 = load ptr, ptr %6, align 8
  call void @_ZN4llvm14SizeOffsetTypeIPNS_5ValueENS_15SizeOffsetValueEEC2ES2_S2_(ptr noundef nonnull align 8 dereferenceable(16) %7, ptr noundef %8, ptr noundef %9)
  ret void
}

; Function Attrs: mustprogress nounwind uwtable
define linkonce_odr hidden void @_ZN4llvm5TwineC2EPKc(ptr noundef nonnull align 8 dereferenceable(34) %0, ptr noundef %1) unnamed_addr #1 comdat align 2 {
  %3 = alloca ptr, align 8
  %4 = alloca ptr, align 8
  store ptr %0, ptr %3, align 8
  store ptr %1, ptr %4, align 8
  %5 = load ptr, ptr %3, align 8
  %6 = getelementptr inbounds nuw %"class.llvm::Twine", ptr %5, i32 0, i32 2
  store i8 1, ptr %6, align 8
  %7 = getelementptr inbounds nuw %"class.llvm::Twine", ptr %5, i32 0, i32 3
  store i8 1, ptr %7, align 1
  %8 = load ptr, ptr %4, align 8
  %9 = getelementptr inbounds i8, ptr %8, i64 0
  %10 = load i8, ptr %9, align 1
  %11 = sext i8 %10 to i32
  %12 = icmp ne i32 %11, 0
  br i1 %12, label %13, label %17

13:                                               ; preds = %2
  %14 = load ptr, ptr %4, align 8
  %15 = getelementptr inbounds nuw %"class.llvm::Twine", ptr %5, i32 0, i32 0
  store ptr %14, ptr %15, align 8
  %16 = getelementptr inbounds nuw %"class.llvm::Twine", ptr %5, i32 0, i32 2
  store i8 3, ptr %16, align 8
  br label %19

17:                                               ; preds = %2
  %18 = getelementptr inbounds nuw %"class.llvm::Twine", ptr %5, i32 0, i32 2
  store i8 1, ptr %18, align 8
  br label %19

19:                                               ; preds = %17, %13
  ret void
}

; Function Attrs: mustprogress nounwind uwtable
define linkonce_odr hidden noundef ptr @_ZN4llvm10SelectInst12getConditionEv(ptr noundef nonnull align 8 dereferenceable(72) %0) #1 comdat align 2 {
  %2 = alloca ptr, align 8
  store ptr %0, ptr %2, align 8
  %3 = load ptr, ptr %2, align 8
  %4 = call noundef nonnull align 8 dereferenceable(32) ptr @_ZN4llvm10SelectInst2OpILi0EEERNS_3UseEv(ptr noundef nonnull align 8 dereferenceable(72) %3)
  %5 = call noundef ptr @_ZNK4llvm3UsecvPNS_5ValueEEv(ptr noundef nonnull align 8 dereferenceable(32) %4)
  ret ptr %5
}

; Function Attrs: mustprogress nounwind uwtable
define linkonce_odr hidden noundef zeroext i1 @_ZNK4llvm14SizeOffsetTypeIPNS_5ValueENS_15SizeOffsetValueEEeqERKS4_(ptr noundef nonnull align 8 dereferenceable(16) %0, ptr noundef nonnull align 8 dereferenceable(16) %1) #1 comdat align 2 {
  %3 = alloca ptr, align 8
  %4 = alloca ptr, align 8
  store ptr %0, ptr %3, align 8
  store ptr %1, ptr %4, align 8
  %5 = load ptr, ptr %3, align 8
  %6 = getelementptr inbounds nuw %"struct.llvm::SizeOffsetType.86", ptr %5, i32 0, i32 0
  %7 = load ptr, ptr %6, align 8
  %8 = load ptr, ptr %4, align 8
  %9 = getelementptr inbounds nuw %"struct.llvm::SizeOffsetType.86", ptr %8, i32 0, i32 0
  %10 = load ptr, ptr %9, align 8
  %11 = icmp eq ptr %7, %10
  br i1 %11, label %12, label %19

12:                                               ; preds = %2
  %13 = getelementptr inbounds nuw %"struct.llvm::SizeOffsetType.86", ptr %5, i32 0, i32 1
  %14 = load ptr, ptr %13, align 8
  %15 = load ptr, ptr %4, align 8
  %16 = getelementptr inbounds nuw %"struct.llvm::SizeOffsetType.86", ptr %15, i32 0, i32 1
  %17 = load ptr, ptr %16, align 8
  %18 = icmp eq ptr %14, %17
  br label %19

19:                                               ; preds = %12, %2
  %20 = phi i1 [ false, %2 ], [ %18, %12 ]
  ret i1 %20
}

; Function Attrs: mustprogress nounwind uwtable
define linkonce_odr hidden { ptr, ptr } @_ZN4llvm25ObjectSizeOffsetEvaluator7unknownEv() #1 comdat align 2 {
  %1 = alloca %"struct.llvm::SizeOffsetValue", align 8
  call void @_ZN4llvm15SizeOffsetValueC2Ev(ptr noundef nonnull align 8 dereferenceable(16) %1)
  %2 = getelementptr inbounds nuw %"struct.llvm::SizeOffsetValue", ptr %1, i32 0, i32 0
  %3 = load { ptr, ptr }, ptr %2, align 8
  ret { ptr, ptr } %3
}

; Function Attrs: mustprogress nounwind uwtable
define linkonce_odr hidden noundef zeroext i1 @_ZNK4llvm14SizeOffsetTypeIPNS_5ValueENS_15SizeOffsetValueEE9bothKnownEv(ptr noundef nonnull align 8 dereferenceable(16) %0) #1 comdat align 2 {
  %2 = alloca ptr, align 8
  store ptr %0, ptr %2, align 8
  %3 = load ptr, ptr %2, align 8
  %4 = call noundef zeroext i1 @_ZNK4llvm14SizeOffsetTypeIPNS_5ValueENS_15SizeOffsetValueEE9knownSizeEv(ptr noundef nonnull align 8 dereferenceable(16) %3)
  br i1 %4, label %5, label %7

5:                                                ; preds = %1
  %6 = call noundef zeroext i1 @_ZNK4llvm14SizeOffsetTypeIPNS_5ValueENS_15SizeOffsetValueEE11knownOffsetEv(ptr noundef nonnull align 8 dereferenceable(16) %3)
  br label %7

7:                                                ; preds = %5, %1
  %8 = phi i1 [ false, %1 ], [ %6, %5 ]
  ret i1 %8
}

; Function Attrs: mustprogress nounwind uwtable
define linkonce_odr hidden noundef ptr @_ZN4llvm10SelectInst13getFalseValueEv(ptr noundef nonnull align 8 dereferenceable(72) %0) #1 comdat align 2 {
  %2 = alloca ptr, align 8
  store ptr %0, ptr %2, align 8
  %3 = load ptr, ptr %2, align 8
  %4 = call noundef nonnull align 8 dereferenceable(32) ptr @_ZN4llvm10SelectInst2OpILi2EEERNS_3UseEv(ptr noundef nonnull align 8 dereferenceable(72) %3)
  %5 = call noundef ptr @_ZNK4llvm3UsecvPNS_5ValueEEv(ptr noundef nonnull align 8 dereferenceable(32) %4)
  ret ptr %5
}

; Function Attrs: mustprogress nounwind uwtable
define linkonce_odr hidden noundef ptr @_ZN4llvm10SelectInst12getTrueValueEv(ptr noundef nonnull align 8 dereferenceable(72) %0) #1 comdat align 2 {
  %2 = alloca ptr, align 8
  store ptr %0, ptr %2, align 8
  %3 = load ptr, ptr %2, align 8
  %4 = call noundef nonnull align 8 dereferenceable(32) ptr @_ZN4llvm10SelectInst2OpILi1EEERNS_3UseEv(ptr noundef nonnull align 8 dereferenceable(72) %3)
  %5 = call noundef ptr @_ZNK4llvm3UsecvPNS_5ValueEEv(ptr noundef nonnull align 8 dereferenceable(32) %4)
  ret ptr %5
}

; Function Attrs: mustprogress nounwind uwtable
define dso_local { ptr, ptr } @_ZN4llvm25ObjectSizeOffsetEvaluator15visitSelectInstERNS_10SelectInstE(ptr noundef nonnull align 8 dereferenceable(456) %0, ptr noundef nonnull align 8 dereferenceable(72) %1) #1 align 2 {
  %3 = alloca %"struct.llvm::SizeOffsetValue", align 8
  %4 = alloca ptr, align 8
  %5 = alloca ptr, align 8
  %6 = alloca %"struct.llvm::SizeOffsetValue", align 8
  %7 = alloca %"struct.llvm::SizeOffsetValue", align 8
  %8 = alloca ptr, align 8
  %9 = alloca %"class.llvm::Twine", align 8
  %10 = alloca ptr, align 8
  %11 = alloca %"class.llvm::Twine", align 8
  store ptr %0, ptr %4, align 8
  store ptr %1, ptr %5, align 8
  %12 = load ptr, ptr %4, align 8
  %13 = load ptr, ptr %5, align 8
  %14 = call noundef ptr @_ZN4llvm10SelectInst12getTrueValueEv(ptr noundef nonnull align 8 dereferenceable(72) %13)
  %15 = call { ptr, ptr } @_ZN4llvm25ObjectSizeOffsetEvaluator8compute_EPNS_5ValueE(ptr noundef nonnull align 8 dereferenceable(456) %12, ptr noundef %14)
  %16 = getelementptr inbounds nuw %"struct.llvm::SizeOffsetValue", ptr %6, i32 0, i32 0
  %17 = getelementptr inbounds nuw { ptr, ptr }, ptr %16, i32 0, i32 0
  %18 = extractvalue { ptr, ptr } %15, 0
  store ptr %18, ptr %17, align 8
  %19 = getelementptr inbounds nuw { ptr, ptr }, ptr %16, i32 0, i32 1
  %20 = extractvalue { ptr, ptr } %15, 1
  store ptr %20, ptr %19, align 8
  %21 = load ptr, ptr %5, align 8
  %22 = call noundef ptr @_ZN4llvm10SelectInst13getFalseValueEv(ptr noundef nonnull align 8 dereferenceable(72) %21)
  %23 = call { ptr, ptr } @_ZN4llvm25ObjectSizeOffsetEvaluator8compute_EPNS_5ValueE(ptr noundef nonnull align 8 dereferenceable(456) %12, ptr noundef %22)
  %24 = getelementptr inbounds nuw %"struct.llvm::SizeOffsetValue", ptr %7, i32 0, i32 0
  %25 = getelementptr inbounds nuw { ptr, ptr }, ptr %24, i32 0, i32 0
  %26 = extractvalue { ptr, ptr } %23, 0
  store ptr %26, ptr %25, align 8
  %27 = getelementptr inbounds nuw { ptr, ptr }, ptr %24, i32 0, i32 1
  %28 = extractvalue { ptr, ptr } %23, 1
  store ptr %28, ptr %27, align 8
  %29 = call noundef zeroext i1 @_ZNK4llvm14SizeOffsetTypeIPNS_5ValueENS_15SizeOffsetValueEE9bothKnownEv(ptr noundef nonnull align 8 dereferenceable(16) %6)
  br i1 %29, label %30, label %32

30:                                               ; preds = %2
  %31 = call noundef zeroext i1 @_ZNK4llvm14SizeOffsetTypeIPNS_5ValueENS_15SizeOffsetValueEE9bothKnownEv(ptr noundef nonnull align 8 dereferenceable(16) %7)
  br i1 %31, label %39, label %32

32:                                               ; preds = %30, %2
  %33 = call { ptr, ptr } @_ZN4llvm25ObjectSizeOffsetEvaluator7unknownEv()
  %34 = getelementptr inbounds nuw %"struct.llvm::SizeOffsetValue", ptr %3, i32 0, i32 0
  %35 = getelementptr inbounds nuw { ptr, ptr }, ptr %34, i32 0, i32 0
  %36 = extractvalue { ptr, ptr } %33, 0
  store ptr %36, ptr %35, align 8
  %37 = getelementptr inbounds nuw { ptr, ptr }, ptr %34, i32 0, i32 1
  %38 = extractvalue { ptr, ptr } %33, 1
  store ptr %38, ptr %37, align 8
  br label %61

39:                                               ; preds = %30
  %40 = call noundef zeroext i1 @_ZNK4llvm14SizeOffsetTypeIPNS_5ValueENS_15SizeOffsetValueEEeqERKS4_(ptr noundef nonnull align 8 dereferenceable(16) %6, ptr noundef nonnull align 8 dereferenceable(16) %7)
  br i1 %40, label %41, label %42

41:                                               ; preds = %39
  call void @llvm.memcpy.p0.p0.i64(ptr align 8 %3, ptr align 8 %6, i64 16, i1 false)
  br label %61

42:                                               ; preds = %39
  %43 = getelementptr inbounds nuw %"class.llvm::ObjectSizeOffsetEvaluator", ptr %12, i32 0, i32 3
  %44 = load ptr, ptr %5, align 8
  %45 = call noundef ptr @_ZN4llvm10SelectInst12getConditionEv(ptr noundef nonnull align 8 dereferenceable(72) %44)
  %46 = getelementptr inbounds nuw %"struct.llvm::SizeOffsetType.86", ptr %6, i32 0, i32 0
  %47 = load ptr, ptr %46, align 8
  %48 = getelementptr inbounds nuw %"struct.llvm::SizeOffsetType.86", ptr %7, i32 0, i32 0
  %49 = load ptr, ptr %48, align 8
  call void @_ZN4llvm5TwineC2EPKc(ptr noundef nonnull align 8 dereferenceable(34) %9, ptr noundef @.str.12)
  %50 = call noundef ptr @_ZN4llvm13IRBuilderBase12CreateSelectEPNS_5ValueES2_S2_RKNS_5TwineEPNS_11InstructionE(ptr noundef nonnull align 8 dereferenceable(128) %43, ptr noundef %45, ptr noundef %47, ptr noundef %49, ptr noundef nonnull align 8 dereferenceable(34) %9, ptr noundef null)
  store ptr %50, ptr %8, align 8
  %51 = getelementptr inbounds nuw %"class.llvm::ObjectSizeOffsetEvaluator", ptr %12, i32 0, i32 3
  %52 = load ptr, ptr %5, align 8
  %53 = call noundef ptr @_ZN4llvm10SelectInst12getConditionEv(ptr noundef nonnull align 8 dereferenceable(72) %52)
  %54 = getelementptr inbounds nuw %"struct.llvm::SizeOffsetType.86", ptr %6, i32 0, i32 1
  %55 = load ptr, ptr %54, align 8
  %56 = getelementptr inbounds nuw %"struct.llvm::SizeOffsetType.86", ptr %7, i32 0, i32 1
  %57 = load ptr, ptr %56, align 8
  call void @_ZN4llvm5TwineC2EPKc(ptr noundef nonnull align 8 dereferenceable(34) %11, ptr noundef @.str.12)
  %58 = call noundef ptr @_ZN4llvm13IRBuilderBase12CreateSelectEPNS_5ValueES2_S2_RKNS_5TwineEPNS_11InstructionE(ptr noundef nonnull align 8 dereferenceable(128) %51, ptr noundef %53, ptr noundef %55, ptr noundef %57, ptr noundef nonnull align 8 dereferenceable(34) %11, ptr noundef null)
  store ptr %58, ptr %10, align 8
  %59 = load ptr, ptr %8, align 8
  %60 = load ptr, ptr %10, align 8
  call void @_ZN4llvm15SizeOffsetValueC2EPNS_5ValueES2_(ptr noundef nonnull align 8 dereferenceable(16) %3, ptr noundef %59, ptr noundef %60)
  br label %61

61:                                               ; preds = %42, %41, %32
  %62 = getelementptr inbounds nuw %"struct.llvm::SizeOffsetValue", ptr %3, i32 0, i32 0
  %63 = load { ptr, ptr }, ptr %62, align 8
  ret { ptr, ptr } %63
}