; Function Attrs: mustprogress nounwind uwtable
define dso_local { ptr, ptr } @_ZN4llvm25ObjectSizeOffsetEvaluator15visitSelectInstERNS_10SelectInstE(ptr noundef nonnull align 8 dereferenceable(456) %0, ptr nocapture noundef nonnull readonly align 8 dereferenceable(72) %1) local_unnamed_addr #0 align 2 {
  %3 = alloca %"class.llvm::Twine", align 8
  %4 = alloca %"class.llvm::Twine", align 8
  %5 = getelementptr inbounds i8, ptr %1, i64 -64
  %6 = load ptr, ptr %5, align 8
  %7 = tail call { ptr, ptr } @_ZN4llvm25ObjectSizeOffsetEvaluator8compute_EPNS_5ValueE(ptr noundef nonnull align 8 dereferenceable(456) %0, ptr noundef %6)
  %8 = extractvalue { ptr, ptr } %7, 0
  %9 = extractvalue { ptr, ptr } %7, 1
  %10 = getelementptr inbounds i8, ptr %1, i64 -32
  %11 = load ptr, ptr %10, align 8
  %12 = tail call { ptr, ptr } @_ZN4llvm25ObjectSizeOffsetEvaluator8compute_EPNS_5ValueE(ptr noundef nonnull align 8 dereferenceable(456) %0, ptr noundef %11)
  %13 = extractvalue { ptr, ptr } %12, 0
  %14 = extractvalue { ptr, ptr } %12, 1
  %15 = icmp ne ptr %8, null
  %16 = icmp ne ptr %9, null
  %17 = select i1 %15, i1 %16, i1 false
  br i1 %17, label %18, label %35

18:                                               ; preds = %2
  %19 = icmp ne ptr %13, null
  %20 = icmp ne ptr %14, null
  %21 = select i1 %19, i1 %20, i1 false
  br i1 %21, label %22, label %35

22:                                               ; preds = %18
  %23 = icmp eq ptr %8, %13
  %24 = icmp eq ptr %9, %14
  %25 = select i1 %23, i1 %24, i1 false
  br i1 %25, label %35, label %26

26:                                               ; preds = %22
  %27 = getelementptr inbounds nuw i8, ptr %0, i64 24
  %28 = getelementptr inbounds i8, ptr %1, i64 -96
  %29 = load ptr, ptr %28, align 8
  %30 = getelementptr inbounds nuw i8, ptr %3, i64 32
  store i16 257, ptr %30, align 8
  %31 = call noundef ptr @_ZN4llvm13IRBuilderBase12CreateSelectEPNS_5ValueES2_S2_RKNS_5TwineEPNS_11InstructionE(ptr noundef nonnull align 8 dereferenceable(128) %27, ptr noundef %29, ptr noundef nonnull %8, ptr noundef nonnull %13, ptr noundef nonnull align 8 dereferenceable(34) %3, ptr noundef null) #20
  %32 = load ptr, ptr %28, align 8
  %33 = getelementptr inbounds nuw i8, ptr %4, i64 32
  store i16 257, ptr %33, align 8
  %34 = call noundef ptr @_ZN4llvm13IRBuilderBase12CreateSelectEPNS_5ValueES2_S2_RKNS_5TwineEPNS_11InstructionE(ptr noundef nonnull align 8 dereferenceable(128) %27, ptr noundef %32, ptr noundef nonnull %9, ptr noundef nonnull %14, ptr noundef nonnull align 8 dereferenceable(34) %4, ptr noundef null) #20
  br label %35

35:                                               ; preds = %22, %2, %18, %26
  %.sroa.016.0 = phi ptr [ %31, %26 ], [ null, %18 ], [ null, %2 ], [ %8, %22 ]
  %.sroa.417.0 = phi ptr [ %34, %26 ], [ null, %18 ], [ null, %2 ], [ %9, %22 ]
  %.fca.0.insert = insertvalue { ptr, ptr } poison, ptr %.sroa.016.0, 0
  %.fca.1.insert = insertvalue { ptr, ptr } %.fca.0.insert, ptr %.sroa.417.0, 1
  ret { ptr, ptr } %.fca.1.insert
}